; Function Attrs: null_pointer_is_valid sspstrong uwtable
define internal fastcc noundef i32 @s7comm_decode_szl_id_0131_idx_0001(ptr noundef %0, ptr noundef %1, i32 noundef %2) unnamed_addr #0 {
  %4 = load i32, ptr @hf_s7comm_szl_0131_0001_index, align 4
  %5 = tail call ptr @proto_tree_add_item(ptr noundef %1, i32 noundef %4, ptr noundef %0, i32 noundef %2, i32 noundef 2, i32 noundef 0)
  %6 = add i32 %2, 2
  %7 = load i32, ptr @hf_s7comm_szl_0131_0001_pdu, align 4
  %8 = tail call ptr @proto_tree_add_item(ptr noundef %1, i32 noundef %7, ptr noundef %0, i32 noundef %6, i32 noundef 2, i32 noundef 0)
  %9 = add i32 %2, 4
  %10 = load i32, ptr @hf_s7comm_szl_0131_0001_anz, align 4
  %11 = tail call ptr @proto_tree_add_item(ptr noundef %1, i32 noundef %10, ptr noundef %0, i32 noundef %9, i32 noundef 2, i32 noundef 0)
  %12 = add i32 %2, 6
  %13 = load i32, ptr @hf_s7comm_szl_0131_0001_mpi_bps, align 4
  %14 = tail call ptr @proto_tree_add_item(ptr noundef %1, i32 noundef %13, ptr noundef %0, i32 noundef %12, i32 noundef 4, i32 noundef 0)
  %15 = add i32 %2, 10
  %16 = load i32, ptr @hf_s7comm_szl_0131_0001_kbus_bps, align 4
  %17 = tail call ptr @proto_tree_add_item(ptr noundef %1, i32 noundef %16, ptr noundef %0, i32 noundef %15, i32 noundef 4, i32 noundef 0)
  %18 = add i32 %2, 14
  %19 = load i32, ptr @hf_s7comm_szl_0131_0001_res, align 4
  %20 = tail call ptr @proto_tree_add_item(ptr noundef %1, i32 noundef %19, ptr noundef %0, i32 noundef %18, i32 noundef 26, i32 noundef 0)
  %21 = add i32 %2, 40
  ret i32 %21
}